; Function Attrs: nounwind uwtable
define ptr @Gia_QbfQuantifyAll(ptr noundef %0, i32 noundef %1, i32 noundef %2, i32 noundef %3) local_unnamed_addr #0 {
  %5 = tail call ptr @Gia_ManDup(ptr noundef %0) #29
  %6 = getelementptr i8, ptr %0, i64 16
  %.val = load i32, ptr %6, align 8, !tbaa !16
  %7 = getelementptr i8, ptr %0, i64 64
  %.val11 = load ptr, ptr %7, align 8, !tbaa !36
  %8 = getelementptr i8, ptr %.val11, i64 4
  %.val11.val = load i32, ptr %8, align 4, !tbaa !11
  %9 = sub nsw i32 %.val11.val, %.val
  %.not.not12 = icmp sgt i32 %9, %1
  br i1 %.not.not12, label %.lr.ph, label %._crit_edge

.lr.ph:                                           ; preds = %4, %.lr.ph
  %.0.in14 = phi i32 [ %.0, %.lr.ph ], [ %9, %4 ]
  %.01013 = phi ptr [ %10, %.lr.ph ], [ %5, %4 ]
  %.0 = add nsw i32 %.0.in14, -1
  %10 = tail call ptr @Gia_QbfQuantifyOne(ptr noundef %.01013, i32 noundef %.0, i32 noundef %2, i32 noundef %3)
  tail call void @Gia_ManStop(ptr noundef %.01013) #29
  %.not.not = icmp sgt i32 %.0, %1
  br i1 %.not.not, label %.lr.ph, label %._crit_edge, !llvm.loop !117

._crit_edge:                                      ; preds = %.lr.ph, %4
  %.010.lcssa = phi ptr [ %5, %4 ], [ %10, %.lr.ph ]
  ret ptr %.010.lcssa
}